; ModuleID = '56/227.c'
source_filename = "56/227.c"
target datalayout = "e-m:e-p270:32:32-p271:32:32-p272:64:64-i64:64-f80:128-n8:16:32:64-S128"
target triple = "x86_64-pc-linux-gnu"

@.str = private unnamed_addr constant [3 x i8] c"%s\00", align 1
@.str.1 = private unnamed_addr constant [3 x i8] c"%c\00", align 1

; Function Attrs: noinline nounwind uwtable
define dso_local i32 @main() #0 {
  %1 = alloca i32, align 4
  %2 = alloca i16, align 2
  %3 = alloca i16, align 2
  %4 = alloca i16, align 2
  %5 = alloca [6 x i8], align 1
  store i32 0, i32* %1, align 4
  store i16 1, i16* %4, align 2
  br label %6

6:                                                ; preds = %34, %0
  %7 = load i16, i16* %4, align 2
  %8 = sext i16 %7 to i32
  %9 = icmp sle i32 %8, 4
  br i1 %9, label %10, label %38

10:                                               ; preds = %6
  %11 = getelementptr inbounds [6 x i8], [6 x i8]* %5, i64 0, i64 0
  %12 = call i32 (i8*, ...) @__isoc99_scanf(i8* getelementptr inbounds ([3 x i8], [3 x i8]* @.str, i64 0, i64 0), i8* %11)
  %13 = getelementptr inbounds [6 x i8], [6 x i8]* %5, i64 0, i64 0
  %14 = call i64 @strlen(i8* %13) #3
  %15 = trunc i64 %14 to i16
  store i16 %15, i16* %2, align 2
  %16 = load i16, i16* %2, align 2
  %17 = sext i16 %16 to i32
  %18 = sub nsw i32 %17, 1
  %19 = trunc i32 %18 to i16
  store i16 %19, i16* %3, align 2
  br label %20

20:                                               ; preds = %31, %10
  %21 = load i16, i16* %3, align 2
  %22 = sext i16 %21 to i32
  %23 = icmp ne i32 %22, -1
  br i1 %23, label %24, label %34

24:                                               ; preds = %20
  %25 = load i16, i16* %3, align 2
  %26 = sext i16 %25 to i64
  %27 = getelementptr inbounds [6 x i8], [6 x i8]* %5, i64 0, i64 %26
  %28 = load i8, i8* %27, align 1
  %29 = sext i8 %28 to i32
  %30 = call i32 (i8*, ...) @printf(i8* getelementptr inbounds ([3 x i8], [3 x i8]* @.str.1, i64 0, i64 0), i32 %29)
  br label %31

31:                                               ; preds = %24
  %32 = load i16, i16* %3, align 2
  %33 = add i16 %32, -1
  store i16 %33, i16* %3, align 2
  br label %20

34:                                               ; preds = %20
  %35 = call i32 @putchar(i32 10)
  %36 = load i16, i16* %4, align 2
  %37 = add i16 %36, 1
  store i16 %37, i16* %4, align 2
  br label %6

38:                                               ; preds = %6
  ret i32 0
}

declare dso_local i32 @__isoc99_scanf(i8*, ...) #1

; Function Attrs: nounwind readonly
declare dso_local i64 @strlen(i8*) #2

declare dso_local i32 @printf(i8*, ...) #1

declare dso_local i32 @putchar(i32) #1


!llvm.module.flags = !{!0}
!llvm.ident = !{!1}

!0 = !{i32 1, !"wchar_size", i32 4}
!1 = !{!"clang version 10.0.0-4ubuntu1 "}
